Certificate:
    Data:
        Version: 3 (0x2)
        Serial Number: 4096 (0x1000)
    Signature Algorithm: ecdsa-with-SHA384
        Issuer: C=CA, ST=ON, L=Ottawa, O=F5 Cisco Lab, OU=F5 Cisco Lab CA, CN=LabCA/emailAddress=labca@cisco.lab
        Validity
            Not Before: Nov 14 15:39:22 2017 GMT
            Not After : Sep 23 15:39:22 2027 GMT
        Subject: C=CA, ST=ON, O=F5 Cisco Lab, OU=F5 Cisco Lab Intermediary CA, CN=LabInt/emailAddress=intca.cisco.lab
        Subject Public Key Info:
            Public Key Algorithm: id-ecPublicKey
                Public-Key: (384 bit)
                pub: 
                    04:63:9a:4b:98:b3:41:db:09:0e:d8:9d:07:7c:f8:
                    bf:77:2d:69:be:af:cf:98:01:5d:37:84:b7:20:f4:
                    37:f5:5a:31:bf:88:4e:21:db:d9:6d:de:4e:5d:15:
                    ba:41:68:9d:52:89:2f:34:fb:5d:db:83:c5:87:be:
                    8a:95:17:57:07:1d:69:71:35:67:ce:2b:ba:f7:89:
                    45:c7:5c:c6:86:c8:ce:45:80:6a:6b:3e:6e:d8:51:
                    b8:90:fb:6c:6d:29:b5
                ASN1 OID: secp384r1
        X509v3 extensions:
            X509v3 Subject Key Identifier: 
                A3:55:87:55:9C:5B:16:06:7E:63:D1:92:D1:EB:75:18:5F:E4:D0:26
            X509v3 Authority Key Identifier: 
                keyid:CF:AB:F1:F1:07:71:74:79:B8:67:0E:A4:4E:24:94:8E:F0:E0:F9:85

            X509v3 Basic Constraints: critical
                CA:TRUE, pathlen:0
            X509v3 Key Usage: critical
                Digital Signature, Certificate Sign, CRL Sign
            X509v3 CRL Distribution Points: 

                Full Name:
                  URI:http://crl.cisco.lab/labCA.crl

            Authority Information Access: 
                CA Issuers - URI:http://ocsp.cisco.lab/labCA.crt
                OCSP - URI:http://ocsp.cisco.lab/

    Signature Algorithm: ecdsa-with-SHA384
         30:65:02:30:10:dc:34:25:01:72:5a:ac:32:86:31:e4:b6:7f:
         7c:fa:69:47:3a:6e:0e:fb:ce:ca:19:df:c3:98:a0:f2:e7:c8:
         f9:a2:19:cc:ac:ad:cb:91:df:f9:1e:94:ad:d9:09:14:02:31:
         00:bd:d3:be:c7:b1:77:a4:b2:9d:83:5e:f7:af:ed:ac:be:d3:
         80:78:c9:dd:c5:87:20:36:a3:b7:28:66:bf:04:75:a4:2e:79:
         5d:64:45:85:93:e5:aa:d1:31:ef:fc:1c:42
-----BEGIN CERTIFICATE-----
MIIDPjCCAsSgAwIBAgICEAAwCgYIKoZIzj0EAwMwgYwxCzAJBgNVBAYTAkNBMQsw
CQYDVQQIDAJPTjEPMA0GA1UEBwwGT3R0YXdhMRUwEwYDVQQKDAxGNSBDaXNjbyBM
YWIxGDAWBgNVBAsMD0Y1IENpc2NvIExhYiBDQTEOMAwGA1UEAwwFTGFiQ0ExHjAc
BgkqhkiG9w0BCQEWD2xhYmNhQGNpc2NvLmxhYjAeFw0xNzExMTQxNTM5MjJaFw0y
NzA5MjMxNTM5MjJaMIGJMQswCQYDVQQGEwJDQTELMAkGA1UECAwCT04xFTATBgNV
BAoMDEY1IENpc2NvIExhYjElMCMGA1UECwwcRjUgQ2lzY28gTGFiIEludGVybWVk
aWFyeSBDQTEPMA0GA1UEAwwGTGFiSW50MR4wHAYJKoZIhvcNAQkBFg9pbnRjYS5j
aXNjby5sYWIwdjAQBgcqhkjOPQIBBgUrgQQAIgNiAARjmkuYs0HbCQ7YnQd8+L93
LWm+r8+YAV03hLcg9Df1WjG/iE4h29lt3k5dFbpBaJ1SiS80+13bg8WHvoqVF1cH
HWlxNWfOK7r3iUXHXMaGyM5FgGprPm7YUbiQ+2xtKbWjgfkwgfYwHQYDVR0OBBYE
FKNVh1WcWxYGfmPRktHrdRhf5NAmMB8GA1UdIwQYMBaAFM+r8fEHcXR5uGcOpE4k
lI7w4PmFMBIGA1UdEwEB/wQIMAYBAf8CAQAwDgYDVR0PAQH/BAQDAgGGMC8GA1Ud
HwQoMCYwJKAioCCGHmh0dHA6Ly9jcmwuY2lzY28ubGFiL2xhYkNBLmNybDBfBggr
BgEFBQcBAQRTMFEwKwYIKwYBBQUHMAKGH2h0dHA6Ly9vY3NwLmNpc2NvLmxhYi9s
YWJDQS5jcnQwIgYIKwYBBQUHMAGGFmh0dHA6Ly9vY3NwLmNpc2NvLmxhYi8wCgYI
KoZIzj0EAwMDaAAwZQIwENw0JQFyWqwyhjHktn98+mlHOm4O+87KGd/DmKDy58j5
ohnMrK3Lkd/5HpSt2QkUAjEAvdO+x7F3pLKdg173r+2svtOAeMndxYcgNqO3KGa/
BHWkLnldZEWFk+Wq0THv/BxC
-----END CERTIFICATE-----
